target datalayout = "e-m:e-p270:32:32-p271:32:32-p272:64:64-i64:64-i128:128-f80:128-n8:16:32:64-S128"
target triple = "x86_64-pc-linux-gnu"

%"class.std::__shared_count" = type { ptr }
%"struct.entt::type_info" = type { i32, i32, %"class.std::basic_string_view" }
%"class.std::basic_string_view" = type { i64, ptr }
%"struct.entt::internal::meta_type_node" = type { ptr, i32, i32, i64, ptr, ptr, ptr, ptr, ptr, %"struct.entt::internal::meta_template_node", %"struct.entt::internal::meta_dtor_node", %"struct.entt::internal::meta_custom_node", %"class.std::shared_ptr.14" }
%"struct.entt::internal::meta_template_node" = type { i64, ptr, ptr }
%"struct.entt::internal::meta_dtor_node" = type { ptr }
%"struct.entt::internal::meta_custom_node" = type { i32, %"class.std::shared_ptr" }
%"class.std::shared_ptr" = type { %"class.std::__shared_ptr" }
%"class.std::__shared_ptr" = type { ptr, %"class.std::__shared_count" }
%"class.std::shared_ptr.14" = type { %"class.std::__shared_ptr.15" }
%"class.std::__shared_ptr.15" = type { ptr, %"class.std::__shared_count" }
%"class.entt::meta_any" = type { %"class.entt::basic_any", ptr, %"struct.entt::internal::meta_type_node", ptr }
%"class.entt::basic_any" = type <{ %union.anon.39, ptr, ptr, i8, [7 x i8] }>
%union.anon.39 = type { ptr, [8 x i8] }

@_ZZN28MetaFactory_DataPointer_Test8TestBodyEvE5value = internal global i32 1, align 4
@_ZZN4entt7type_idIiEERKNS_9type_infoEvE8instance = linkonce_odr hidden global %"struct.entt::type_info" zeroinitializer, comdat, align 8
@_ZGVZN4entt7type_idIiEERKNS_9type_infoEvE8instance = linkonce_odr hidden global i64 0, comdat, align 8

; Function Attrs: mustprogress nounwind uwtable
define linkonce_odr hidden noundef nonnull align 8 dereferenceable(24) ptr @_ZN4entt7type_idIiEERKNS_9type_infoEv() #5 comdat {
  %1 = load atomic i8, ptr @_ZGVZN4entt7type_idIiEERKNS_9type_infoEvE8instance acquire, align 8
  %2 = icmp eq i8 %1, 0
  br i1 %2, label %3, label %8, !prof !41

3:                                                ; preds = %0
  %4 = call i32 @__cxa_guard_acquire(ptr @_ZGVZN4entt7type_idIiEERKNS_9type_infoEvE8instance) #3
  %5 = icmp ne i32 %4, 0
  br i1 %5, label %6, label %8

6:                                                ; preds = %3
  call void @_ZN4entt9type_infoC2IiEESt15in_place_type_tIT_E(ptr noundef nonnull align 8 dereferenceable(24) @_ZZN4entt7type_idIiEERKNS_9type_infoEvE8instance) #3
  %7 = call ptr @llvm.invariant.start.p0(i64 24, ptr @_ZZN4entt7type_idIiEERKNS_9type_infoEvE8instance)
  call void @__cxa_guard_release(ptr @_ZGVZN4entt7type_idIiEERKNS_9type_infoEvE8instance) #3
  br label %8

8:                                                ; preds = %6, %3, %0
  ret ptr @_ZZN4entt7type_idIiEERKNS_9type_infoEvE8instance
}

; Function Attrs: mustprogress nounwind uwtable
define linkonce_odr hidden void @_ZN4entt9basic_anyILm16ELm8EE10initializeIiJRiEEEvDpOT0_(ptr noundef nonnull align 8 dereferenceable(33) %0, ptr noundef nonnull align 4 dereferenceable(4) %1) #5 comdat align 2 {
  %3 = alloca ptr, align 8
  %4 = alloca ptr, align 8
  store ptr %0, ptr %3, align 8, !tbaa !670
  store ptr %1, ptr %4, align 8, !tbaa !100
  %5 = load ptr, ptr %3, align 8
  %6 = call noundef nonnull align 8 dereferenceable(24) ptr @_ZN4entt7type_idIiEERKNS_9type_infoEv() #3
  %7 = getelementptr inbounds nuw %"class.entt::basic_any", ptr %5, i32 0, i32 1
  store ptr %6, ptr %7, align 8, !tbaa !703
  %8 = getelementptr inbounds nuw %"class.entt::basic_any", ptr %5, i32 0, i32 2
  store ptr @_ZN4entt9basic_anyILm16ELm8EE12basic_vtableIiEEPKvNS_8internal11any_requestERKS1_S4_, ptr %8, align 8, !tbaa !672
  %9 = getelementptr inbounds nuw %"class.entt::basic_any", ptr %5, i32 0, i32 3
  store i8 2, ptr %9, align 8, !tbaa !673
  %10 = getelementptr inbounds nuw %"class.entt::basic_any", ptr %5, i32 0, i32 0
  %11 = load ptr, ptr %4, align 8, !tbaa !100
  %12 = load i32, ptr %11, align 4, !tbaa !17
  store i32 %12, ptr %10, align 8, !tbaa !17
  ret void
}

; Function Attrs: inlinehint mustprogress nounwind uwtable
define linkonce_odr hidden noundef nonnull align 8 dereferenceable(56) ptr @_ZN4entt8internal12meta_context4fromERKNS_8meta_ctxE(ptr noundef nonnull align 8 dereferenceable(56) %0) #10 comdat align 2 {
  %2 = alloca ptr, align 8
  store ptr %0, ptr %2, align 8, !tbaa !35
  %3 = load ptr, ptr %2, align 8, !tbaa !35
  ret ptr %3
}

; Function Attrs: mustprogress uwtable
define linkonce_odr hidden void @_ZN4entt9basic_anyILm16ELm8EEC2IiJRiEEESt15in_place_type_tIT_EDpOT0_(ptr noundef nonnull align 8 dereferenceable(33) %0, ptr noundef nonnull align 4 dereferenceable(4) %1) unnamed_addr #6 comdat align 2 {
  %3 = alloca ptr, align 8
  %4 = alloca ptr, align 8
  store ptr %0, ptr %3, align 8, !tbaa !670
  store ptr %1, ptr %4, align 8, !tbaa !100
  %5 = load ptr, ptr %3, align 8
  %6 = getelementptr inbounds nuw %"class.entt::basic_any", ptr %5, i32 0, i32 0
  store ptr null, ptr %6, align 8, !tbaa !315
  %7 = getelementptr inbounds nuw %"class.entt::basic_any", ptr %5, i32 0, i32 1
  store ptr null, ptr %7, align 8, !tbaa !703
  %8 = getelementptr inbounds nuw %"class.entt::basic_any", ptr %5, i32 0, i32 2
  store ptr null, ptr %8, align 8, !tbaa !672
  %9 = getelementptr inbounds nuw %"class.entt::basic_any", ptr %5, i32 0, i32 3
  store i8 0, ptr %9, align 8, !tbaa !673
  %10 = load ptr, ptr %4, align 8, !tbaa !100
  call void @_ZN4entt9basic_anyILm16ELm8EE10initializeIiJRiEEEvDpOT0_(ptr noundef nonnull align 8 dereferenceable(33) %5, ptr noundef nonnull align 4 dereferenceable(4) %10)
  ret void
}

; Function Attrs: mustprogress uwtable
define linkonce_odr hidden void @_ZN4entt8meta_anyC2IiJRiEEERKNS_8meta_ctxESt15in_place_type_tIT_EDpOT0_(ptr noundef nonnull align 8 dereferenceable(192) %0, ptr noundef nonnull align 8 dereferenceable(56) %1, ptr noundef nonnull align 4 dereferenceable(4) %2) unnamed_addr #6 comdat align 2 {
  %4 = alloca ptr, align 8
  %5 = alloca ptr, align 8
  %6 = alloca ptr, align 8
  store ptr %0, ptr %4, align 8, !tbaa !160
  store ptr %1, ptr %5, align 8, !tbaa !35
  store ptr %2, ptr %6, align 8, !tbaa !100
  %7 = load ptr, ptr %4, align 8
  %8 = getelementptr inbounds nuw %"class.entt::meta_any", ptr %7, i32 0, i32 0
  %9 = load ptr, ptr %6, align 8, !tbaa !100
  call void @_ZN4entt9basic_anyILm16ELm8EEC2IiJRiEEESt15in_place_type_tIT_EDpOT0_(ptr noundef nonnull align 8 dereferenceable(33) %8, ptr noundef nonnull align 4 dereferenceable(4) %9)
  %10 = getelementptr inbounds nuw %"class.entt::meta_any", ptr %7, i32 0, i32 1
  %11 = load ptr, ptr %5, align 8, !tbaa !35
  store ptr %11, ptr %10, align 8, !tbaa !162
  %12 = getelementptr inbounds nuw %"class.entt::meta_any", ptr %7, i32 0, i32 2
  %13 = getelementptr inbounds nuw %"class.entt::meta_any", ptr %7, i32 0, i32 1
  %14 = load ptr, ptr %13, align 8, !tbaa !162
  %15 = call noundef nonnull align 8 dereferenceable(56) ptr @_ZN4entt8internal12meta_context4fromERKNS_8meta_ctxE(ptr noundef nonnull align 8 dereferenceable(56) %14)
  call void @_ZN4entt8internal7resolveIiEENS0_14meta_type_nodeERKNS0_12meta_contextE(ptr dead_on_unwind writable sret(%"struct.entt::internal::meta_type_node") align 8 %12, ptr noundef nonnull align 8 dereferenceable(56) %15) #3
  %16 = getelementptr inbounds nuw %"class.entt::meta_any", ptr %7, i32 0, i32 3
  store ptr @_ZN4entt8meta_any12basic_vtableIiEEvNS_8internal11meta_traitsERKNS_8meta_ctxEPKvPv, ptr %16, align 8, !tbaa !187
  ret void
}

; Function Attrs: mustprogress uwtable
define linkonce_odr hidden void @_ZN4entt8meta_anyC2IRivEERKNS_8meta_ctxEOT_(ptr noundef nonnull align 8 dereferenceable(192) %0, ptr noundef nonnull align 8 dereferenceable(56) %1, ptr noundef nonnull align 4 dereferenceable(4) %2) unnamed_addr #6 comdat align 2 {
  %4 = alloca ptr, align 8
  %5 = alloca ptr, align 8
  %6 = alloca ptr, align 8
  store ptr %0, ptr %4, align 8, !tbaa !160
  store ptr %1, ptr %5, align 8, !tbaa !35
  store ptr %2, ptr %6, align 8, !tbaa !100
  %7 = load ptr, ptr %4, align 8
  %8 = load ptr, ptr %5, align 8, !tbaa !35
  %9 = load ptr, ptr %6, align 8, !tbaa !100
  call void @_ZN4entt8meta_anyC2IiJRiEEERKNS_8meta_ctxESt15in_place_type_tIT_EDpOT0_(ptr noundef nonnull align 8 dereferenceable(192) %7, ptr noundef nonnull align 8 dereferenceable(56) %8, ptr noundef nonnull align 4 dereferenceable(4) %9)
  ret void
}

; Function Attrs: mustprogress uwtable
define linkonce_odr hidden void @_ZN4entt13meta_dispatchINS_7as_is_tERiEENSt9enable_ifIX16is_meta_policy_vIT_EENS_8meta_anyEE4typeERKNS_8meta_ctxEOT0_(ptr dead_on_unwind noalias writable sret(%"class.entt::meta_any") align 8 %0, ptr noundef nonnull align 8 dereferenceable(56) %1, ptr noundef nonnull align 4 dereferenceable(4) %2) #6 comdat {
  %4 = alloca ptr, align 8
  %5 = alloca ptr, align 8
  %6 = alloca ptr, align 8
  store ptr %0, ptr %4, align 8
  store ptr %1, ptr %5, align 8, !tbaa !35
  store ptr %2, ptr %6, align 8, !tbaa !100
  %7 = load ptr, ptr %5, align 8, !tbaa !35
  %8 = load ptr, ptr %6, align 8, !tbaa !100
  call void @_ZN4entt8meta_anyC2IRivEERKNS_8meta_ctxEOT_(ptr noundef nonnull align 8 dereferenceable(192) %0, ptr noundef nonnull align 8 dereferenceable(56) %7, ptr noundef nonnull align 4 dereferenceable(4) %8)
  ret void
}

; Function Attrs: mustprogress uwtable
define internal void @_ZN4entt11meta_getterIiTnDaXadL_ZZN28MetaFactory_DataPointer_Test8TestBodyEvE5valueEENS_7as_is_tEEENSt9enable_ifIX16is_meta_policy_vIT1_EENS_8meta_anyEE4typeERKNS_8meta_ctxENS_11meta_handleE(ptr dead_on_unwind noalias writable sret(%"class.entt::meta_any") align 8 %0, ptr noundef nonnull align 8 dereferenceable(56) %1, ptr noundef %2) #6 {
  %4 = alloca ptr, align 8
  %5 = alloca ptr, align 8
  %6 = alloca ptr, align 8
  store ptr %0, ptr %4, align 8
  store ptr %1, ptr %5, align 8, !tbaa !35
  store ptr %2, ptr %6, align 8, !tbaa !209
  %7 = load ptr, ptr %5, align 8, !tbaa !35
  call void @_ZN4entt13meta_dispatchINS_7as_is_tERiEENSt9enable_ifIX16is_meta_policy_vIT_EENS_8meta_anyEE4typeERKNS_8meta_ctxEOT0_(ptr dead_on_unwind writable sret(%"class.entt::meta_any") align 8 %0, ptr noundef nonnull align 8 dereferenceable(56) %7, ptr noundef nonnull align 4 dereferenceable(4) @_ZZN28MetaFactory_DataPointer_Test8TestBodyEvE5value)
  ret void
}