; Function Attrs: mustprogress nounwind uwtable
define internal void @_ZN4entt11meta_getterIiTnDaXadL_ZZN28MetaFactory_DataPointer_Test8TestBodyEvE5valueEENS_7as_is_tEEENSt9enable_ifIX16is_meta_policy_vIT1_EENS_8meta_anyEE4typeERKNS_8meta_ctxENS_11meta_handleE(ptr dead_on_unwind noalias writable sret(%"class.entt::meta_any") align 8 initializes((0, 8), (16, 33), (40, 48)) %0, ptr noundef nonnull align 8 dereferenceable(56) %1, ptr readnone captures(none) %2) #9 {
  tail call void @llvm.experimental.noalias.scope.decl(metadata !1318)
  store ptr null, ptr %0, align 8, !tbaa !72, !alias.scope !1318
  %4 = getelementptr inbounds nuw i8, ptr %0, i64 16
  tail call void @llvm.memset.p0.i64(ptr noundef nonnull align 8 dereferenceable(17) %4, i8 0, i64 17, i1 false), !alias.scope !1318
  %5 = load atomic i8, ptr @_ZGVZN4entt7type_idIiEERKNS_9type_infoEvE8instance acquire, align 8, !noalias !1318
  %6 = icmp eq i8 %5, 0
  br i1 %6, label %7, label %_ZN4entt13meta_dispatchINS_7as_is_tERiEENSt9enable_ifIX16is_meta_policy_vIT_EENS_8meta_anyEE4typeERKNS_8meta_ctxEOT0_.exit, !prof !39

7:                                                ; preds = %3
  %8 = tail call i32 @__cxa_guard_acquire(ptr nonnull @_ZGVZN4entt7type_idIiEERKNS_9type_infoEvE8instance) #28, !noalias !1318
  %.not.i.i.i.i.i.i = icmp eq i32 %8, 0
  br i1 %.not.i.i.i.i.i.i, label %_ZN4entt13meta_dispatchINS_7as_is_tERiEENSt9enable_ifIX16is_meta_policy_vIT_EENS_8meta_anyEE4typeERKNS_8meta_ctxEOT0_.exit, label %9

9:                                                ; preds = %7
  tail call void @_ZN4entt9type_infoC2IiEESt15in_place_type_tIT_E(ptr noundef nonnull align 8 dereferenceable(24) @_ZZN4entt7type_idIiEERKNS_9type_infoEvE8instance) #28, !noalias !1318
  %10 = tail call ptr @llvm.invariant.start.p0(i64 24, ptr nonnull @_ZZN4entt7type_idIiEERKNS_9type_infoEvE8instance), !noalias !1318
  tail call void @__cxa_guard_release(ptr nonnull @_ZGVZN4entt7type_idIiEERKNS_9type_infoEvE8instance) #28, !noalias !1318
  br label %_ZN4entt13meta_dispatchINS_7as_is_tERiEENSt9enable_ifIX16is_meta_policy_vIT_EENS_8meta_anyEE4typeERKNS_8meta_ctxEOT0_.exit

_ZN4entt13meta_dispatchINS_7as_is_tERiEENSt9enable_ifIX16is_meta_policy_vIT_EENS_8meta_anyEE4typeERKNS_8meta_ctxEOT0_.exit: ; preds = %3, %7, %9
  %11 = getelementptr inbounds nuw i8, ptr %0, i64 32
  %12 = getelementptr inbounds nuw i8, ptr %0, i64 24
  store ptr @_ZZN4entt7type_idIiEERKNS_9type_infoEvE8instance, ptr %4, align 8, !tbaa !321, !alias.scope !1318
  store ptr @_ZN4entt9basic_anyILm16ELm8EE12basic_vtableIiEEPKvNS_8internal11any_requestERKS1_S4_, ptr %12, align 8, !tbaa !324, !alias.scope !1318
  store i8 2, ptr %11, align 8, !tbaa !325, !alias.scope !1318
  %13 = load i32, ptr @_ZZN28MetaFactory_DataPointer_Test8TestBodyEvE5value, align 4, !tbaa !73, !noalias !1318
  store i32 %13, ptr %0, align 8, !tbaa !73, !alias.scope !1318
  %14 = getelementptr inbounds nuw i8, ptr %0, i64 40
  store ptr %1, ptr %14, align 8, !tbaa !326, !alias.scope !1318
  %15 = getelementptr inbounds nuw i8, ptr %0, i64 48
  tail call void @_ZN4entt8internal7resolveIiEENS0_14meta_type_nodeERKNS0_12meta_contextE(ptr dead_on_unwind nonnull writable sret(%"struct.entt::internal::meta_type_node") align 8 %15, ptr noundef nonnull align 8 dereferenceable(56) %1) #28
  %16 = getelementptr inbounds nuw i8, ptr %0, i64 184
  store ptr @_ZN4entt8meta_any12basic_vtableIiEEvNS_8internal11meta_traitsERKNS_8meta_ctxEPKvPv, ptr %16, align 8, !tbaa !328, !alias.scope !1318
  ret void
}